target datalayout = "e-m:e-p270:32:32-p271:32:32-p272:64:64-i64:64-i128:128-f80:128-n8:16:32:64-S128"
target triple = "x86_64-pc-linux-gnu"

%struct.stack_st = type { i64, ptr, i64, i64, ptr }

; Function Attrs: nounwind uwtable
define hidden ptr @sk_delete(ptr noundef %0, i64 noundef %1) #0 {
  %3 = alloca ptr, align 8
  %4 = alloca ptr, align 8
  %5 = alloca i64, align 8
  %6 = alloca ptr, align 8
  %7 = alloca i32, align 4
  store ptr %0, ptr %4, align 8, !tbaa !10
  store i64 %1, ptr %5, align 8, !tbaa !19
  call void @llvm.lifetime.start.p0(i64 8, ptr %6) #9
  %8 = load ptr, ptr %4, align 8, !tbaa !10
  %9 = icmp ne ptr %8, null
  br i1 %9, label %10, label %16

10:                                               ; preds = %2
  %11 = load i64, ptr %5, align 8, !tbaa !19
  %12 = load ptr, ptr %4, align 8, !tbaa !10
  %13 = getelementptr inbounds nuw %struct.stack_st, ptr %12, i32 0, i32 0
  %14 = load i64, ptr %13, align 8, !tbaa !17
  %15 = icmp uge i64 %11, %14
  br i1 %15, label %16, label %17

16:                                               ; preds = %10, %2
  store ptr null, ptr %3, align 8
  store i32 1, ptr %7, align 4
  br label %55

17:                                               ; preds = %10
  %18 = load ptr, ptr %4, align 8, !tbaa !10
  %19 = getelementptr inbounds nuw %struct.stack_st, ptr %18, i32 0, i32 1
  %20 = load ptr, ptr %19, align 8, !tbaa !12
  %21 = load i64, ptr %5, align 8, !tbaa !19
  %22 = getelementptr inbounds nuw ptr, ptr %20, i64 %21
  %23 = load ptr, ptr %22, align 8, !tbaa !6
  store ptr %23, ptr %6, align 8, !tbaa !6
  %24 = load i64, ptr %5, align 8, !tbaa !19
  %25 = load ptr, ptr %4, align 8, !tbaa !10
  %26 = getelementptr inbounds nuw %struct.stack_st, ptr %25, i32 0, i32 0
  %27 = load i64, ptr %26, align 8, !tbaa !17
  %28 = sub i64 %27, 1
  %29 = icmp ne i64 %24, %28
  br i1 %29, label %30, label %49

30:                                               ; preds = %17
  %31 = load ptr, ptr %4, align 8, !tbaa !10
  %32 = getelementptr inbounds nuw %struct.stack_st, ptr %31, i32 0, i32 1
  %33 = load ptr, ptr %32, align 8, !tbaa !12
  %34 = load i64, ptr %5, align 8, !tbaa !19
  %35 = getelementptr inbounds nuw ptr, ptr %33, i64 %34
  %36 = load ptr, ptr %4, align 8, !tbaa !10
  %37 = getelementptr inbounds nuw %struct.stack_st, ptr %36, i32 0, i32 1
  %38 = load ptr, ptr %37, align 8, !tbaa !12
  %39 = load i64, ptr %5, align 8, !tbaa !19
  %40 = add i64 %39, 1
  %41 = getelementptr inbounds nuw ptr, ptr %38, i64 %40
  %42 = load ptr, ptr %4, align 8, !tbaa !10
  %43 = getelementptr inbounds nuw %struct.stack_st, ptr %42, i32 0, i32 0
  %44 = load i64, ptr %43, align 8, !tbaa !17
  %45 = load i64, ptr %5, align 8, !tbaa !19
  %46 = sub i64 %44, %45
  %47 = sub i64 %46, 1
  %48 = mul i64 8, %47
  call void @llvm.memmove.p0.p0.i64(ptr align 8 %35, ptr align 8 %41, i64 %48, i1 false)
  br label %49

49:                                               ; preds = %30, %17
  %50 = load ptr, ptr %4, align 8, !tbaa !10
  %51 = getelementptr inbounds nuw %struct.stack_st, ptr %50, i32 0, i32 0
  %52 = load i64, ptr %51, align 8, !tbaa !17
  %53 = add i64 %52, -1
  store i64 %53, ptr %51, align 8, !tbaa !17
  %54 = load ptr, ptr %6, align 8, !tbaa !6
  store ptr %54, ptr %3, align 8
  store i32 1, ptr %7, align 4
  br label %55

55:                                               ; preds = %49, %16
  call void @llvm.lifetime.end.p0(i64 8, ptr %6) #9
  %56 = load ptr, ptr %3, align 8
  ret ptr %56
}

; Function Attrs: nounwind uwtable
define hidden ptr @sk_shift(ptr noundef %0) #0 {
  %2 = alloca ptr, align 8
  %3 = alloca ptr, align 8
  store ptr %0, ptr %3, align 8, !tbaa !10
  %4 = load ptr, ptr %3, align 8, !tbaa !10
  %5 = icmp eq ptr %4, null
  br i1 %5, label %6, label %7

6:                                                ; preds = %1
  store ptr null, ptr %2, align 8
  br label %16

7:                                                ; preds = %1
  %8 = load ptr, ptr %3, align 8, !tbaa !10
  %9 = getelementptr inbounds nuw %struct.stack_st, ptr %8, i32 0, i32 0
  %10 = load i64, ptr %9, align 8, !tbaa !17
  %11 = icmp eq i64 %10, 0
  br i1 %11, label %12, label %13

12:                                               ; preds = %7
  store ptr null, ptr %2, align 8
  br label %16

13:                                               ; preds = %7
  %14 = load ptr, ptr %3, align 8, !tbaa !10
  %15 = call ptr @sk_delete(ptr noundef %14, i64 noundef 0)
  store ptr %15, ptr %2, align 8
  br label %16

16:                                               ; preds = %13, %12, %6
  %17 = load ptr, ptr %2, align 8
  ret ptr %17
}