; Function Attrs: mustprogress nofree norecurse nosync nounwind willreturn memory(readwrite, inaccessiblemem: none) uwtable
define hidden ptr @sk_shift(ptr noundef captures(address_is_null) %0) local_unnamed_addr #10 {
  %2 = icmp eq ptr %0, null
  br i1 %2, label %14, label %3

3:                                                ; preds = %1
  %4 = load i64, ptr %0, align 8, !tbaa !14
  %5 = icmp eq i64 %4, 0
  br i1 %5, label %14, label %6

6:                                                ; preds = %3
  %7 = getelementptr inbounds nuw i8, ptr %0, i64 8
  %8 = load ptr, ptr %7, align 8, !tbaa !6
  %9 = load ptr, ptr %8, align 8, !tbaa !16
  %10 = add i64 %4, -1
  %.not19.i = icmp eq i64 %10, 0
  br i1 %.not19.i, label %sk_delete.exit, label %11

11:                                               ; preds = %6
  %12 = getelementptr i8, ptr %8, i64 8
  %13 = shl i64 %10, 3
  tail call void @llvm.memmove.p0.p0.i64(ptr nonnull align 8 %8, ptr align 8 %12, i64 %13, i1 false)
  %.pre.i = load i64, ptr %0, align 8, !tbaa !14
  %.pre20.i = add i64 %.pre.i, -1
  br label %sk_delete.exit

sk_delete.exit:                                   ; preds = %6, %11
  %.pre-phi.i = phi i64 [ %.pre20.i, %11 ], [ 0, %6 ]
  store i64 %.pre-phi.i, ptr %0, align 8, !tbaa !14
  br label %14

14:                                               ; preds = %3, %1, %sk_delete.exit
  %.0 = phi ptr [ %9, %sk_delete.exit ], [ null, %1 ], [ null, %3 ]
  ret ptr %.0
}